target datalayout = "e-m:e-p270:32:32-p271:32:32-p272:64:64-i64:64-i128:128-f80:128-n8:16:32:64-S128"
target triple = "x86_64-pc-linux-gnu"

%struct.rb_data_type_struct = type { ptr, %struct.anon, ptr, ptr, i64 }
%struct.anon = type { ptr, ptr, ptr, ptr, [1 x ptr] }
%struct.RBasic = type { i64, i64 }
%struct.RString = type { %struct.RBasic, i64, %union.anon.0 }
%union.anon.0 = type { %struct.anon.1 }
%struct.anon.1 = type { ptr, %union.anon.2 }
%union.anon.2 = type { i64 }
%struct.anon.3 = type { [1 x i8] }

@eTimestampError = internal global i64 0, align 8
@rb_eRuntimeError = external global i64, align 8
@ossl_ts_req_type = internal constant %struct.rb_data_type_struct { ptr @.str.64, %struct.anon { ptr null, ptr @ossl_ts_req_free, ptr null, ptr null, [1 x ptr] zeroinitializer }, ptr null, ptr null, i64 33 }, align 8
@.str.57 = private unnamed_addr constant [27 x i8] c"TS_REQ wasn't initialized.\00", align 1
@eASN1Error = external global i64, align 8
@.str.73 = private unnamed_addr constant [18 x i8] c"invalid OBJECT ID\00", align 1
@.str.75 = private unnamed_addr constant [21 x i8] c"TS_REQ_set_policy_id\00", align 1

; Function Attrs: inlinehint nounwind sspstrong willreturn memory(read) uwtable
define internal i64 @RB_FL_TEST_RAW(i64 noundef %0, i64 noundef %1) #2 {
  %3 = alloca i64, align 8
  %4 = alloca i64, align 8
  store i64 %0, ptr %3, align 8, !tbaa !6
  store i64 %1, ptr %4, align 8, !tbaa !6
  %5 = load i64, ptr %3, align 8, !tbaa !6
  %6 = inttoptr i64 %5 to ptr
  %7 = getelementptr inbounds nuw %struct.RBasic, ptr %6, i32 0, i32 0
  %8 = load i64, ptr %7, align 8, !tbaa !80
  %9 = load i64, ptr %4, align 8, !tbaa !6
  %10 = and i64 %8, %9
  ret i64 %10
}

; Function Attrs: inlinehint nounwind sspstrong willreturn memory(read) uwtable
define internal i64 @RSTRING_LEN(i64 noundef %0) #2 {
  %2 = alloca i64, align 8
  store i64 %0, ptr %2, align 8, !tbaa !6
  %3 = load i64, ptr %2, align 8, !tbaa !6
  %4 = inttoptr i64 %3 to ptr
  %5 = getelementptr inbounds nuw %struct.RString, ptr %4, i32 0, i32 1
  %6 = load i64, ptr %5, align 8, !tbaa !78
  ret i64 %6
}

; Function Attrs: inlinehint nounwind sspstrong willreturn memory(read) uwtable
define internal zeroext i1 @RB_FL_ANY_RAW(i64 noundef %0, i64 noundef %1) #2 {
  %3 = alloca i64, align 8
  %4 = alloca i64, align 8
  store i64 %0, ptr %3, align 8, !tbaa !6
  store i64 %1, ptr %4, align 8, !tbaa !6
  %5 = load i64, ptr %3, align 8, !tbaa !6
  %6 = load i64, ptr %4, align 8, !tbaa !6
  %7 = call i64 @RB_FL_TEST_RAW(i64 noundef %5, i64 noundef %6) #15
  %8 = icmp ne i64 %7, 0
  ret i1 %8
}

; Function Attrs: inlinehint nounwind sspstrong willreturn memory(read, argmem: readwrite) uwtable
define internal void @rbimpl_rstring_getmem(ptr dead_on_unwind noalias writable sret(%struct.RString) align 8 %0, i64 noundef %1) #8 {
  %3 = alloca i64, align 8
  store i64 %1, ptr %3, align 8, !tbaa !6
  %4 = load i64, ptr %3, align 8, !tbaa !6
  %5 = call zeroext i1 @RB_FL_ANY_RAW(i64 noundef %4, i64 noundef 8192) #15
  br i1 %5, label %6, label %9

6:                                                ; preds = %2
  %7 = load i64, ptr %3, align 8, !tbaa !6
  %8 = inttoptr i64 %7 to ptr
  call void @llvm.memcpy.p0.p0.i64(ptr align 8 %0, ptr align 8 %8, i64 40, i1 false), !tbaa.struct !77
  br label %20

9:                                                ; preds = %2
  %10 = load i64, ptr %3, align 8, !tbaa !6
  %11 = call i64 @RSTRING_LEN(i64 noundef %10) #15
  %12 = getelementptr inbounds nuw %struct.RString, ptr %0, i32 0, i32 1
  store i64 %11, ptr %12, align 8, !tbaa !78
  %13 = load i64, ptr %3, align 8, !tbaa !6
  %14 = inttoptr i64 %13 to ptr
  %15 = getelementptr inbounds nuw %struct.RString, ptr %14, i32 0, i32 2
  %16 = getelementptr inbounds nuw %struct.anon.3, ptr %15, i32 0, i32 0
  %17 = getelementptr inbounds [1 x i8], ptr %16, i64 0, i64 0
  %18 = getelementptr inbounds nuw %struct.RString, ptr %0, i32 0, i32 2
  %19 = getelementptr inbounds nuw %struct.anon.1, ptr %18, i32 0, i32 0
  store ptr %17, ptr %19, align 8, !tbaa !37
  br label %20

20:                                               ; preds = %9, %6
  ret void
}

; Function Attrs: inlinehint nounwind sspstrong uwtable
define internal ptr @RSTRING_PTR(i64 noundef %0) #3 {
  %2 = alloca i64, align 8
  %3 = alloca ptr, align 8
  %4 = alloca %struct.RString, align 8
  store i64 %0, ptr %2, align 8, !tbaa !6
  call void @llvm.lifetime.start.p0(i64 8, ptr %3) #16
  %5 = load i64, ptr %2, align 8, !tbaa !6
  call void @rbimpl_rstring_getmem(ptr dead_on_unwind writable sret(%struct.RString) align 8 %4, i64 noundef %5) #20
  %6 = getelementptr inbounds nuw %struct.RString, ptr %4, i32 0, i32 2
  %7 = getelementptr inbounds nuw %struct.anon.1, ptr %6, i32 0, i32 0
  %8 = load ptr, ptr %7, align 8, !tbaa !37
  store ptr %8, ptr %3, align 8, !tbaa !10
  %9 = load ptr, ptr %3, align 8, !tbaa !10
  call void @llvm.lifetime.end.p0(i64 8, ptr %3) #16
  ret ptr %9
}

; Function Attrs: nounwind sspstrong uwtable
define internal ptr @obj_to_asn1obj(i64 noundef %0) #0 {
  %2 = alloca i64, align 8
  %3 = alloca ptr, align 8
  store i64 %0, ptr %2, align 8, !tbaa !6
  call void @llvm.lifetime.start.p0(i64 8, ptr %3) #16
  %4 = call i64 @rb_string_value(ptr noundef %2)
  %5 = load i64, ptr %2, align 8, !tbaa !6
  %6 = call ptr @RSTRING_PTR(i64 noundef %5)
  %7 = call ptr @OBJ_txt2obj(ptr noundef %6, i32 noundef 0)
  store ptr %7, ptr %3, align 8, !tbaa !63
  %8 = load ptr, ptr %3, align 8, !tbaa !63
  %9 = icmp ne ptr %8, null
  br i1 %9, label %14, label %10

10:                                               ; preds = %1
  %11 = load i64, ptr %2, align 8, !tbaa !6
  %12 = call ptr @RSTRING_PTR(i64 noundef %11)
  %13 = call ptr @OBJ_txt2obj(ptr noundef %12, i32 noundef 1)
  store ptr %13, ptr %3, align 8, !tbaa !63
  br label %14

14:                                               ; preds = %10, %1
  %15 = load ptr, ptr %3, align 8, !tbaa !63
  %16 = icmp ne ptr %15, null
  br i1 %16, label %19, label %17

17:                                               ; preds = %14
  %18 = load i64, ptr @eASN1Error, align 8, !tbaa !6
  call void (i64, ptr, ...) @ossl_raise(i64 noundef %18, ptr noundef @.str.73) #17
  unreachable

19:                                               ; preds = %14
  %20 = load ptr, ptr %3, align 8, !tbaa !63
  call void @llvm.lifetime.end.p0(i64 8, ptr %3) #16
  ret ptr %20
}

; Function Attrs: nounwind sspstrong uwtable
define internal i64 @ossl_ts_req_set_policy_id(i64 noundef %0, i64 noundef %1) #0 {
  %3 = alloca i64, align 8
  %4 = alloca i64, align 8
  %5 = alloca ptr, align 8
  %6 = alloca ptr, align 8
  %7 = alloca i32, align 4
  store i64 %0, ptr %3, align 8, !tbaa !6
  store i64 %1, ptr %4, align 8, !tbaa !6
  call void @llvm.lifetime.start.p0(i64 8, ptr %5) #16
  call void @llvm.lifetime.start.p0(i64 8, ptr %6) #16
  call void @llvm.lifetime.start.p0(i64 4, ptr %7) #16
  br label %8

8:                                                ; preds = %2
  %9 = load i64, ptr %3, align 8, !tbaa !6
  %10 = call ptr @rb_check_typeddata(i64 noundef %9, ptr noundef @ossl_ts_req_type)
  store ptr %10, ptr %5, align 8, !tbaa !51
  %11 = load ptr, ptr %5, align 8, !tbaa !51
  %12 = icmp ne ptr %11, null
  br i1 %12, label %15, label %13

13:                                               ; preds = %8
  %14 = load i64, ptr @rb_eRuntimeError, align 8, !tbaa !6
  call void (i64, ptr, ...) @ossl_raise(i64 noundef %14, ptr noundef @.str.57) #17
  unreachable

15:                                               ; preds = %8
  br label %16

16:                                               ; preds = %15
  br label %17

17:                                               ; preds = %16
  %18 = load i64, ptr %4, align 8, !tbaa !6
  %19 = call ptr @obj_to_asn1obj(i64 noundef %18)
  store ptr %19, ptr %6, align 8, !tbaa !63
  %20 = load ptr, ptr %5, align 8, !tbaa !51
  %21 = load ptr, ptr %6, align 8, !tbaa !63
  %22 = call i32 @TS_REQ_set_policy_id(ptr noundef %20, ptr noundef %21)
  store i32 %22, ptr %7, align 4, !tbaa !29
  %23 = load ptr, ptr %6, align 8, !tbaa !63
  call void @ASN1_OBJECT_free(ptr noundef %23)
  %24 = load i32, ptr %7, align 4, !tbaa !29
  %25 = icmp ne i32 %24, 0
  br i1 %25, label %28, label %26

26:                                               ; preds = %17
  %27 = load i64, ptr @eTimestampError, align 8, !tbaa !6
  call void (i64, ptr, ...) @ossl_raise(i64 noundef %27, ptr noundef @.str.75) #17
  unreachable

28:                                               ; preds = %17
  %29 = load i64, ptr %4, align 8, !tbaa !6
  call void @llvm.lifetime.end.p0(i64 4, ptr %7) #16
  call void @llvm.lifetime.end.p0(i64 8, ptr %6) #16
  call void @llvm.lifetime.end.p0(i64 8, ptr %5) #16
  ret i64 %29
}